target datalayout = "e-m:e-p270:32:32-p271:32:32-p272:64:64-i64:64-i128:128-f80:128-n8:16:32:64-S128"
target triple = "x86_64-pc-linux-gnu"

%struct.bufferevent = type { ptr, ptr, %struct.event, %struct.event, ptr, ptr, %struct.event_watermark, %struct.event_watermark, ptr, ptr, ptr, ptr, %struct.timeval, %struct.timeval, i16 }
%struct.event = type { %struct.event_callback, %union.anon.0, i32, i16, i16, ptr, %union.anon.2, %struct.timeval }
%struct.event_callback = type { %struct.anon, i16, i8, i8, %union.anon, ptr }
%struct.anon = type { ptr, ptr }
%union.anon = type { ptr }
%union.anon.0 = type { %struct.anon.1 }
%struct.anon.1 = type { ptr, ptr }
%union.anon.2 = type { %struct.anon.3 }
%struct.anon.3 = type { %struct.anon.4, %struct.timeval }
%struct.anon.4 = type { ptr, ptr }
%struct.event_watermark = type { i64, i64 }
%struct.timeval = type { i64, i64 }
%struct.bufferevent_filtered = type { %struct.bufferevent_private, ptr, ptr, ptr, i32, ptr, ptr, ptr, ptr }
%struct.bufferevent_private = type { %struct.bufferevent, ptr, i8, i16, i16, i16, i32, i32, %struct.event_callback, i32, i32, ptr, i64, i64, ptr, %union.anon.7, ptr }
%union.anon.7 = type { %struct.sockaddr_in6 }
%struct.sockaddr_in6 = type { i16, i16, i32, %struct.in6_addr, i32 }
%struct.in6_addr = type { %union.anon.8 }
%union.anon.8 = type { [4 x i32] }

; Function Attrs: inlinehint nounwind uwtable
define internal ptr @upcast(ptr noundef %0) #3 {
  %2 = alloca ptr, align 8
  %3 = alloca ptr, align 8
  store ptr %0, ptr %2, align 8
  call void @llvm.lifetime.start.p0(i64 8, ptr %3) #4
  br label %4

4:                                                ; preds = %1
  br label %5

5:                                                ; preds = %4
  br label %6

6:                                                ; preds = %5
  %7 = load ptr, ptr %2, align 8
  %8 = getelementptr inbounds i8, ptr %7, i64 0
  store ptr %8, ptr %3, align 8
  br label %9

9:                                                ; preds = %6
  br label %10

10:                                               ; preds = %9
  br label %11

11:                                               ; preds = %10
  %12 = load ptr, ptr %3, align 8
  call void @llvm.lifetime.end.p0(i64 8, ptr %3) #4
  ret ptr %12
}

; Function Attrs: nounwind uwtable
define internal i32 @be_filter_enable(ptr noundef %0, i16 noundef signext %1) #0 {
  %3 = alloca ptr, align 8
  %4 = alloca i16, align 2
  %5 = alloca ptr, align 8
  store ptr %0, ptr %3, align 8
  store i16 %1, ptr %4, align 2
  call void @llvm.lifetime.start.p0(i64 8, ptr %5) #4
  %6 = load ptr, ptr %3, align 8
  %7 = call ptr @upcast(ptr noundef %6)
  store ptr %7, ptr %5, align 8
  %8 = load i16, ptr %4, align 2
  %9 = sext i16 %8 to i32
  %10 = and i32 %9, 4
  %11 = icmp ne i32 %10, 0
  br i1 %11, label %12, label %34

12:                                               ; preds = %2
  br label %13

13:                                               ; preds = %12
  %14 = load ptr, ptr %3, align 8
  %15 = getelementptr inbounds nuw %struct.bufferevent, ptr %14, i32 0, i32 13
  %16 = getelementptr inbounds nuw %struct.timeval, ptr %15, i32 0, i32 0
  %17 = load i64, ptr %16, align 8
  %18 = icmp ne i64 %17, 0
  br i1 %18, label %25, label %19

19:                                               ; preds = %13
  %20 = load ptr, ptr %3, align 8
  %21 = getelementptr inbounds nuw %struct.bufferevent, ptr %20, i32 0, i32 13
  %22 = getelementptr inbounds nuw %struct.timeval, ptr %21, i32 0, i32 1
  %23 = load i64, ptr %22, align 8
  %24 = icmp ne i64 %23, 0
  br i1 %24, label %25, label %31

25:                                               ; preds = %19, %13
  %26 = load ptr, ptr %3, align 8
  %27 = getelementptr inbounds nuw %struct.bufferevent, ptr %26, i32 0, i32 3
  %28 = load ptr, ptr %3, align 8
  %29 = getelementptr inbounds nuw %struct.bufferevent, ptr %28, i32 0, i32 13
  %30 = call i32 @event_add(ptr noundef %27, ptr noundef %29)
  br label %31

31:                                               ; preds = %25, %19
  br label %32

32:                                               ; preds = %31
  br label %33

33:                                               ; preds = %32
  br label %34

34:                                               ; preds = %33, %2
  %35 = load i16, ptr %4, align 2
  %36 = sext i16 %35 to i32
  %37 = and i32 %36, 2
  %38 = icmp ne i32 %37, 0
  br i1 %38, label %39, label %64

39:                                               ; preds = %34
  br label %40

40:                                               ; preds = %39
  %41 = load ptr, ptr %3, align 8
  %42 = getelementptr inbounds nuw %struct.bufferevent, ptr %41, i32 0, i32 12
  %43 = getelementptr inbounds nuw %struct.timeval, ptr %42, i32 0, i32 0
  %44 = load i64, ptr %43, align 8
  %45 = icmp ne i64 %44, 0
  br i1 %45, label %52, label %46

46:                                               ; preds = %40
  %47 = load ptr, ptr %3, align 8
  %48 = getelementptr inbounds nuw %struct.bufferevent, ptr %47, i32 0, i32 12
  %49 = getelementptr inbounds nuw %struct.timeval, ptr %48, i32 0, i32 1
  %50 = load i64, ptr %49, align 8
  %51 = icmp ne i64 %50, 0
  br i1 %51, label %52, label %58

52:                                               ; preds = %46, %40
  %53 = load ptr, ptr %3, align 8
  %54 = getelementptr inbounds nuw %struct.bufferevent, ptr %53, i32 0, i32 2
  %55 = load ptr, ptr %3, align 8
  %56 = getelementptr inbounds nuw %struct.bufferevent, ptr %55, i32 0, i32 12
  %57 = call i32 @event_add(ptr noundef %54, ptr noundef %56)
  br label %58

58:                                               ; preds = %52, %46
  br label %59

59:                                               ; preds = %58
  br label %60

60:                                               ; preds = %59
  %61 = load ptr, ptr %5, align 8
  %62 = getelementptr inbounds nuw %struct.bufferevent_filtered, ptr %61, i32 0, i32 1
  %63 = load ptr, ptr %62, align 8
  call void @bufferevent_unsuspend_read_(ptr noundef %63, i16 noundef zeroext 16)
  br label %64

64:                                               ; preds = %60, %34
  call void @llvm.lifetime.end.p0(i64 8, ptr %5) #4
  ret i32 0
}