; Function Attrs: nounwind uwtable
define internal noundef i32 @be_filter_enable(ptr noundef %0, i16 noundef signext %1) #0 {
  %3 = and i16 %1, 4
  %.not = icmp eq i16 %3, 0
  br i1 %.not, label %13, label %4

4:                                                ; preds = %2
  %5 = getelementptr inbounds nuw i8, ptr %0, i64 352
  %6 = load i64, ptr %5, align 8
  %.not11 = icmp eq i64 %6, 0
  br i1 %.not11, label %7, label %10

7:                                                ; preds = %4
  %8 = getelementptr inbounds nuw i8, ptr %0, i64 360
  %9 = load i64, ptr %8, align 8
  %.not12 = icmp eq i64 %9, 0
  br i1 %.not12, label %13, label %10

10:                                               ; preds = %7, %4
  %11 = getelementptr inbounds nuw i8, ptr %0, i64 136
  %12 = tail call i32 @event_add(ptr noundef nonnull %11, ptr noundef nonnull %5) #3
  br label %13

13:                                               ; preds = %7, %10, %2
  %14 = and i16 %1, 2
  %.not13 = icmp eq i16 %14, 0
  br i1 %.not13, label %27, label %15

15:                                               ; preds = %13
  %16 = getelementptr inbounds nuw i8, ptr %0, i64 336
  %17 = load i64, ptr %16, align 8
  %.not14 = icmp eq i64 %17, 0
  br i1 %.not14, label %18, label %21

18:                                               ; preds = %15
  %19 = getelementptr inbounds nuw i8, ptr %0, i64 344
  %20 = load i64, ptr %19, align 8
  %.not15 = icmp eq i64 %20, 0
  br i1 %.not15, label %24, label %21

21:                                               ; preds = %18, %15
  %22 = getelementptr inbounds nuw i8, ptr %0, i64 16
  %23 = tail call i32 @event_add(ptr noundef nonnull %22, ptr noundef nonnull %16) #3
  br label %24

24:                                               ; preds = %21, %18
  %25 = getelementptr inbounds nuw i8, ptr %0, i64 520
  %26 = load ptr, ptr %25, align 8
  tail call void @bufferevent_unsuspend_read_(ptr noundef %26, i16 noundef zeroext 16) #3
  br label %27

27:                                               ; preds = %24, %13
  ret i32 0
}